target datalayout = "e-m:e-p270:32:32-p271:32:32-p272:64:64-i64:64-i128:128-f80:128-n8:16:32:64-S128"
target triple = "x86_64-pc-linux-gnu"

%struct.Vector2 = type { float, float }

; Function Attrs: nounwind uwtable
define zeroext i1 @CheckCollisionPointPoly(<2 x float> %0, ptr noundef %1, i32 noundef %2) #0 {
  %4 = alloca %struct.Vector2, align 4
  %5 = alloca ptr, align 8
  %6 = alloca i32, align 4
  %7 = alloca i8, align 1
  %8 = alloca i32, align 4
  %9 = alloca i32, align 4
  store <2 x float> %0, ptr %4, align 4
  store ptr %1, ptr %5, align 8
  store i32 %2, ptr %6, align 4
  call void @llvm.lifetime.start.p0(i64 1, ptr %7) #8
  store i8 0, ptr %7, align 1
  %10 = load i32, ptr %6, align 4
  %11 = icmp sgt i32 %10, 2
  br i1 %11, label %12, label %100

12:                                               ; preds = %3
  call void @llvm.lifetime.start.p0(i64 4, ptr %8) #8
  store i32 0, ptr %8, align 4
  call void @llvm.lifetime.start.p0(i64 4, ptr %9) #8
  %13 = load i32, ptr %6, align 4
  %14 = sub nsw i32 %13, 1
  store i32 %14, ptr %9, align 4
  br label %15

15:                                               ; preds = %96, %12
  %16 = load i32, ptr %8, align 4
  %17 = load i32, ptr %6, align 4
  %18 = icmp slt i32 %16, %17
  br i1 %18, label %20, label %19

19:                                               ; preds = %15
  call void @llvm.lifetime.end.p0(i64 4, ptr %9) #8
  call void @llvm.lifetime.end.p0(i64 4, ptr %8) #8
  br label %99

20:                                               ; preds = %15
  %21 = load ptr, ptr %5, align 8
  %22 = load i32, ptr %8, align 4
  %23 = sext i32 %22 to i64
  %24 = getelementptr inbounds %struct.Vector2, ptr %21, i64 %23
  %25 = getelementptr inbounds nuw %struct.Vector2, ptr %24, i32 0, i32 1
  %26 = load float, ptr %25, align 4
  %27 = getelementptr inbounds nuw %struct.Vector2, ptr %4, i32 0, i32 1
  %28 = load float, ptr %27, align 4
  %29 = fcmp ogt float %26, %28
  %30 = zext i1 %29 to i32
  %31 = load ptr, ptr %5, align 8
  %32 = load i32, ptr %9, align 4
  %33 = sext i32 %32 to i64
  %34 = getelementptr inbounds %struct.Vector2, ptr %31, i64 %33
  %35 = getelementptr inbounds nuw %struct.Vector2, ptr %34, i32 0, i32 1
  %36 = load float, ptr %35, align 4
  %37 = getelementptr inbounds nuw %struct.Vector2, ptr %4, i32 0, i32 1
  %38 = load float, ptr %37, align 4
  %39 = fcmp ogt float %36, %38
  %40 = zext i1 %39 to i32
  %41 = icmp ne i32 %30, %40
  br i1 %41, label %42, label %95

42:                                               ; preds = %20
  %43 = getelementptr inbounds nuw %struct.Vector2, ptr %4, i32 0, i32 0
  %44 = load float, ptr %43, align 4
  %45 = load ptr, ptr %5, align 8
  %46 = load i32, ptr %9, align 4
  %47 = sext i32 %46 to i64
  %48 = getelementptr inbounds %struct.Vector2, ptr %45, i64 %47
  %49 = getelementptr inbounds nuw %struct.Vector2, ptr %48, i32 0, i32 0
  %50 = load float, ptr %49, align 4
  %51 = load ptr, ptr %5, align 8
  %52 = load i32, ptr %8, align 4
  %53 = sext i32 %52 to i64
  %54 = getelementptr inbounds %struct.Vector2, ptr %51, i64 %53
  %55 = getelementptr inbounds nuw %struct.Vector2, ptr %54, i32 0, i32 0
  %56 = load float, ptr %55, align 4
  %57 = fsub float %50, %56
  %58 = getelementptr inbounds nuw %struct.Vector2, ptr %4, i32 0, i32 1
  %59 = load float, ptr %58, align 4
  %60 = load ptr, ptr %5, align 8
  %61 = load i32, ptr %8, align 4
  %62 = sext i32 %61 to i64
  %63 = getelementptr inbounds %struct.Vector2, ptr %60, i64 %62
  %64 = getelementptr inbounds nuw %struct.Vector2, ptr %63, i32 0, i32 1
  %65 = load float, ptr %64, align 4
  %66 = fsub float %59, %65
  %67 = fmul float %57, %66
  %68 = load ptr, ptr %5, align 8
  %69 = load i32, ptr %9, align 4
  %70 = sext i32 %69 to i64
  %71 = getelementptr inbounds %struct.Vector2, ptr %68, i64 %70
  %72 = getelementptr inbounds nuw %struct.Vector2, ptr %71, i32 0, i32 1
  %73 = load float, ptr %72, align 4
  %74 = load ptr, ptr %5, align 8
  %75 = load i32, ptr %8, align 4
  %76 = sext i32 %75 to i64
  %77 = getelementptr inbounds %struct.Vector2, ptr %74, i64 %76
  %78 = getelementptr inbounds nuw %struct.Vector2, ptr %77, i32 0, i32 1
  %79 = load float, ptr %78, align 4
  %80 = fsub float %73, %79
  %81 = fdiv float %67, %80
  %82 = load ptr, ptr %5, align 8
  %83 = load i32, ptr %8, align 4
  %84 = sext i32 %83 to i64
  %85 = getelementptr inbounds %struct.Vector2, ptr %82, i64 %84
  %86 = getelementptr inbounds nuw %struct.Vector2, ptr %85, i32 0, i32 0
  %87 = load float, ptr %86, align 4
  %88 = fadd float %81, %87
  %89 = fcmp olt float %44, %88
  br i1 %89, label %90, label %95

90:                                               ; preds = %42
  %91 = load i8, ptr %7, align 1, !range !3, !noundef !4
  %92 = trunc i8 %91 to i1
  %93 = xor i1 %92, true
  %94 = zext i1 %93 to i8
  store i8 %94, ptr %7, align 1
  br label %95

95:                                               ; preds = %90, %42, %20
  br label %96

96:                                               ; preds = %95
  %97 = load i32, ptr %8, align 4
  %98 = add nsw i32 %97, 1
  store i32 %98, ptr %8, align 4
  store i32 %97, ptr %9, align 4
  br label %15

99:                                               ; preds = %19
  br label %100

100:                                              ; preds = %99, %3
  %101 = load i8, ptr %7, align 1, !range !3, !noundef !4
  %102 = trunc i8 %101 to i1
  call void @llvm.lifetime.end.p0(i64 1, ptr %7) #8
  ret i1 %102
}