; Function Attrs: nofree norecurse nosync nounwind memory(argmem: read) uwtable
define zeroext i1 @CheckCollisionPointPoly(<2 x float> %0, ptr noundef readonly captures(none) %1, i32 noundef %2) local_unnamed_addr #13 {
  %4 = icmp sgt i32 %2, 2
  br i1 %4, label %5, label %.loopexit

5:                                                ; preds = %3
  %6 = add nsw i32 %2, -1
  %.sroa.0.4.vec.extract = extractelement <2 x float> %0, i64 1
  %.sroa.0.0.vec.extract = extractelement <2 x float> %0, i64 0
  %wide.trip.count = zext nneg i32 %2 to i64
  br label %7

7:                                                ; preds = %5, %29
  %indvars.iv = phi i64 [ 0, %5 ], [ %indvars.iv.next, %29 ]
  %.031 = phi i32 [ %6, %5 ], [ %30, %29 ]
  %.129 = phi i1 [ false, %5 ], [ %.2, %29 ]
  %8 = getelementptr inbounds nuw %struct.Vector2, ptr %1, i64 %indvars.iv
  %9 = getelementptr inbounds nuw i8, ptr %8, i64 4
  %10 = load float, ptr %9, align 4
  %11 = fcmp ogt float %10, %.sroa.0.4.vec.extract
  %12 = sext i32 %.031 to i64
  %13 = getelementptr inbounds %struct.Vector2, ptr %1, i64 %12
  %14 = getelementptr inbounds nuw i8, ptr %13, i64 4
  %15 = load float, ptr %14, align 4
  %16 = fcmp ule float %15, %.sroa.0.4.vec.extract
  %.not = xor i1 %11, %16
  br i1 %.not, label %29, label %17

17:                                               ; preds = %7
  %18 = load float, ptr %13, align 4
  %19 = load float, ptr %8, align 4
  %20 = fsub float %18, %19
  %21 = fsub float %.sroa.0.4.vec.extract, %10
  %22 = fmul float %21, %20
  %23 = fsub float %15, %10
  %24 = fdiv float %22, %23
  %25 = fadd float %19, %24
  %26 = fcmp olt float %.sroa.0.0.vec.extract, %25
  br i1 %26, label %27, label %29

27:                                               ; preds = %17
  %28 = xor i1 %.129, true
  br label %29

29:                                               ; preds = %7, %17, %27
  %.2 = phi i1 [ %28, %27 ], [ %.129, %17 ], [ %.129, %7 ]
  %indvars.iv.next = add nuw nsw i64 %indvars.iv, 1
  %30 = trunc nuw nsw i64 %indvars.iv to i32
  %exitcond.not = icmp eq i64 %indvars.iv.next, %wide.trip.count
  br i1 %exitcond.not, label %.loopexit, label %7

.loopexit:                                        ; preds = %29, %3
  %.027 = phi i1 [ false, %3 ], [ %.2, %29 ]
  ret i1 %.027
}